target datalayout = "e-m:e-p270:32:32-p271:32:32-p272:64:64-i64:64-i128:128-f80:128-n8:16:32:64-S128"
target triple = "x86_64-pc-linux-gnu"

%struct.MultiXactMember = type { i32, i32 }
%struct.StringInfoData = type { ptr, i32, i32, i32 }

@.str.1 = private unnamed_addr constant [12 x i8] c"multixact.c\00", align 1
@mxid_to_string.str = internal global ptr null, align 8
@.str.6 = private unnamed_addr constant [14 x i8] c"%u %d[%u (%s)\00", align 1
@.str.7 = private unnamed_addr constant [10 x i8] c", %u (%s)\00", align 1
@TopMemoryContext = external global ptr, align 8
@.str.41 = private unnamed_addr constant [6 x i8] c"keysh\00", align 1
@.str.42 = private unnamed_addr constant [3 x i8] c"sh\00", align 1
@.str.43 = private unnamed_addr constant [12 x i8] c"fornokeyupd\00", align 1
@.str.44 = private unnamed_addr constant [7 x i8] c"forupd\00", align 1
@.str.45 = private unnamed_addr constant [9 x i8] c"nokeyupd\00", align 1
@.str.46 = private unnamed_addr constant [4 x i8] c"upd\00", align 1
@.str.47 = private unnamed_addr constant [33 x i8] c"unrecognized multixact status %d\00", align 1
@__func__.mxstatus_to_string = private unnamed_addr constant [19 x i8] c"mxstatus_to_string\00", align 1
@.str.48 = private unnamed_addr constant [1 x i8] zeroinitializer, align 1

; Function Attrs: nounwind uwtable
define internal ptr @mxstatus_to_string(i32 noundef %0) #0 {
  %2 = alloca ptr, align 8
  %3 = alloca i32, align 4
  store i32 %0, ptr %3, align 4
  %4 = load i32, ptr %3, align 4
  switch i32 %4, label %11 [
    i32 0, label %5
    i32 1, label %6
    i32 2, label %7
    i32 3, label %8
    i32 4, label %9
    i32 5, label %10
  ]

5:                                                ; preds = %1
  store ptr @.str.41, ptr %2, align 8
  br label %22

6:                                                ; preds = %1
  store ptr @.str.42, ptr %2, align 8
  br label %22

7:                                                ; preds = %1
  store ptr @.str.43, ptr %2, align 8
  br label %22

8:                                                ; preds = %1
  store ptr @.str.44, ptr %2, align 8
  br label %22

9:                                                ; preds = %1
  store ptr @.str.45, ptr %2, align 8
  br label %22

10:                                               ; preds = %1
  store ptr @.str.46, ptr %2, align 8
  br label %22

11:                                               ; preds = %1
  br label %12

12:                                               ; preds = %11
  br i1 true, label %13, label %15

13:                                               ; preds = %12
  %14 = call zeroext i1 @errstart_cold(i32 noundef 21, ptr noundef null) #10
  br i1 %14, label %17, label %20

15:                                               ; preds = %12
  %16 = call zeroext i1 @errstart(i32 noundef 21, ptr noundef null)
  br i1 %16, label %17, label %20

17:                                               ; preds = %15, %13
  %18 = load i32, ptr %3, align 4
  %19 = call i32 (ptr, ...) @errmsg_internal(ptr noundef @.str.47, i32 noundef %18)
  call void @errfinish(ptr noundef @.str.1, i32 noundef 1771, ptr noundef @__func__.mxstatus_to_string)
  br label %20

20:                                               ; preds = %17, %15, %13
  unreachable

21:                                               ; No predecessors!
  store ptr @.str.48, ptr %2, align 8
  br label %22

22:                                               ; preds = %21, %10, %9, %8, %7, %6, %5
  %23 = load ptr, ptr %2, align 8
  ret ptr %23
}

; Function Attrs: nounwind uwtable
define dso_local ptr @mxid_to_string(i32 noundef %0, i32 noundef %1, ptr noundef %2) #0 {
  %4 = alloca i32, align 4
  %5 = alloca i32, align 4
  %6 = alloca ptr, align 8
  %7 = alloca %struct.StringInfoData, align 8
  %8 = alloca i32, align 4
  store i32 %0, ptr %4, align 4
  store i32 %1, ptr %5, align 4
  store ptr %2, ptr %6, align 8
  call void @llvm.lifetime.start.p0(i64 24, ptr %7) #9
  call void @llvm.lifetime.start.p0(i64 4, ptr %8) #9
  %9 = load ptr, ptr @mxid_to_string.str, align 8
  %10 = icmp ne ptr %9, null
  br i1 %10, label %11, label %13

11:                                               ; preds = %3
  %12 = load ptr, ptr @mxid_to_string.str, align 8
  call void @pfree(ptr noundef %12)
  br label %13

13:                                               ; preds = %11, %3
  call void @initStringInfo(ptr noundef %7)
  %14 = load i32, ptr %4, align 4
  %15 = load i32, ptr %5, align 4
  %16 = load ptr, ptr %6, align 8
  %17 = getelementptr inbounds %struct.MultiXactMember, ptr %16, i64 0
  %18 = getelementptr inbounds nuw %struct.MultiXactMember, ptr %17, i32 0, i32 0
  %19 = load i32, ptr %18, align 4
  %20 = load ptr, ptr %6, align 8
  %21 = getelementptr inbounds %struct.MultiXactMember, ptr %20, i64 0
  %22 = getelementptr inbounds nuw %struct.MultiXactMember, ptr %21, i32 0, i32 1
  %23 = load i32, ptr %22, align 4
  %24 = call ptr @mxstatus_to_string(i32 noundef %23)
  call void (ptr, ptr, ...) @appendStringInfo(ptr noundef %7, ptr noundef @.str.6, i32 noundef %14, i32 noundef %15, i32 noundef %19, ptr noundef %24)
  store i32 1, ptr %8, align 4
  br label %25

25:                                               ; preds = %43, %13
  %26 = load i32, ptr %8, align 4
  %27 = load i32, ptr %5, align 4
  %28 = icmp slt i32 %26, %27
  br i1 %28, label %29, label %46

29:                                               ; preds = %25
  %30 = load ptr, ptr %6, align 8
  %31 = load i32, ptr %8, align 4
  %32 = sext i32 %31 to i64
  %33 = getelementptr inbounds %struct.MultiXactMember, ptr %30, i64 %32
  %34 = getelementptr inbounds nuw %struct.MultiXactMember, ptr %33, i32 0, i32 0
  %35 = load i32, ptr %34, align 4
  %36 = load ptr, ptr %6, align 8
  %37 = load i32, ptr %8, align 4
  %38 = sext i32 %37 to i64
  %39 = getelementptr inbounds %struct.MultiXactMember, ptr %36, i64 %38
  %40 = getelementptr inbounds nuw %struct.MultiXactMember, ptr %39, i32 0, i32 1
  %41 = load i32, ptr %40, align 4
  %42 = call ptr @mxstatus_to_string(i32 noundef %41)
  call void (ptr, ptr, ...) @appendStringInfo(ptr noundef %7, ptr noundef @.str.7, i32 noundef %35, ptr noundef %42)
  br label %43

43:                                               ; preds = %29
  %44 = load i32, ptr %8, align 4
  %45 = add i32 %44, 1
  store i32 %45, ptr %8, align 4
  br label %25, !llvm.loop !14

46:                                               ; preds = %25
  call void @appendStringInfoChar(ptr noundef %7, i8 noundef signext 93)
  %47 = load ptr, ptr @TopMemoryContext, align 8
  %48 = getelementptr inbounds nuw %struct.StringInfoData, ptr %7, i32 0, i32 0
  %49 = load ptr, ptr %48, align 8
  %50 = call ptr @MemoryContextStrdup(ptr noundef %47, ptr noundef %49)
  store ptr %50, ptr @mxid_to_string.str, align 8
  %51 = getelementptr inbounds nuw %struct.StringInfoData, ptr %7, i32 0, i32 0
  %52 = load ptr, ptr %51, align 8
  call void @pfree(ptr noundef %52)
  %53 = load ptr, ptr @mxid_to_string.str, align 8
  call void @llvm.lifetime.end.p0(i64 4, ptr %8) #9
  call void @llvm.lifetime.end.p0(i64 24, ptr %7) #9
  ret ptr %53
}