; Function Attrs: nounwind uwtable
define dso_local ptr @mxid_to_string(i32 noundef %0, i32 noundef %1, ptr noundef readonly captures(none) %2) local_unnamed_addr #0 {
  %4 = alloca %struct.StringInfoData, align 8
  call void @llvm.lifetime.start.p0(i64 24, ptr nonnull %4) #13
  %5 = load ptr, ptr @mxid_to_string.str, align 8
  %.not = icmp eq ptr %5, null
  br i1 %.not, label %7, label %6

6:                                                ; preds = %3
  tail call void @pfree(ptr noundef nonnull %5) #13
  br label %7

7:                                                ; preds = %6, %3
  call void @initStringInfo(ptr noundef nonnull %4) #13
  %8 = getelementptr inbounds nuw i8, ptr %2, i64 4
  %9 = load i32, ptr %8, align 4
  %10 = icmp ult i32 %9, 6
  br i1 %10, label %switch.lookup, label %11

11:                                               ; preds = %7
  %12 = call zeroext i1 @errstart_cold(i32 noundef 21, ptr noundef null) #14
  call void @llvm.assume(i1 %12)
  %13 = call i32 (ptr, ...) @errmsg_internal(ptr noundef nonnull @.str.47, i32 noundef %9) #13
  call void @errfinish(ptr noundef nonnull @.str.1, i32 noundef 1771, ptr noundef nonnull @__func__.mxstatus_to_string) #13
  unreachable

switch.lookup:                                    ; preds = %7
  %14 = load i32, ptr %2, align 4
  %15 = zext nneg i32 %9 to i64
  %switch.gep = getelementptr inbounds nuw [6 x ptr], ptr @switch.table.pg_get_multixact_members, i64 0, i64 %15
  %switch.load = load ptr, ptr %switch.gep, align 8
  call void (ptr, ptr, ...) @appendStringInfo(ptr noundef nonnull %4, ptr noundef nonnull @.str.6, i32 noundef %0, i32 noundef %1, i32 noundef %14, ptr noundef nonnull %switch.load) #13
  %16 = icmp sgt i32 %1, 1
  br i1 %16, label %.lr.ph.preheader, label %._crit_edge

.lr.ph.preheader:                                 ; preds = %switch.lookup
  %wide.trip.count = zext nneg i32 %1 to i64
  br label %.lr.ph

.lr.ph:                                           ; preds = %.lr.ph.preheader, %switch.lookup18
  %indvars.iv = phi i64 [ 1, %.lr.ph.preheader ], [ %indvars.iv.next, %switch.lookup18 ]
  %17 = getelementptr inbounds nuw %struct.MultiXactMember, ptr %2, i64 %indvars.iv
  %18 = getelementptr inbounds nuw i8, ptr %17, i64 4
  %19 = load i32, ptr %18, align 4
  %20 = icmp ult i32 %19, 6
  br i1 %20, label %switch.lookup18, label %21

21:                                               ; preds = %.lr.ph
  %22 = call zeroext i1 @errstart_cold(i32 noundef 21, ptr noundef null) #14
  call void @llvm.assume(i1 %22)
  %23 = call i32 (ptr, ...) @errmsg_internal(ptr noundef nonnull @.str.47, i32 noundef %19) #13
  call void @errfinish(ptr noundef nonnull @.str.1, i32 noundef 1771, ptr noundef nonnull @__func__.mxstatus_to_string) #13
  unreachable

switch.lookup18:                                  ; preds = %.lr.ph
  %24 = load i32, ptr %17, align 4
  %25 = zext nneg i32 %19 to i64
  %switch.gep19 = getelementptr inbounds nuw [6 x ptr], ptr @switch.table.pg_get_multixact_members, i64 0, i64 %25
  %switch.load20 = load ptr, ptr %switch.gep19, align 8
  call void (ptr, ptr, ...) @appendStringInfo(ptr noundef nonnull %4, ptr noundef nonnull @.str.7, i32 noundef %24, ptr noundef nonnull %switch.load20) #13
  %indvars.iv.next = add nuw nsw i64 %indvars.iv, 1
  %exitcond.not = icmp eq i64 %indvars.iv.next, %wide.trip.count
  br i1 %exitcond.not, label %._crit_edge, label %.lr.ph, !llvm.loop !18

._crit_edge:                                      ; preds = %switch.lookup18, %switch.lookup
  call void @appendStringInfoChar(ptr noundef nonnull %4, i8 noundef signext 93) #13
  %26 = load ptr, ptr @TopMemoryContext, align 8
  %27 = load ptr, ptr %4, align 8
  %28 = call ptr @MemoryContextStrdup(ptr noundef %26, ptr noundef %27) #13
  store ptr %28, ptr @mxid_to_string.str, align 8
  %29 = load ptr, ptr %4, align 8
  call void @pfree(ptr noundef %29) #13
  %30 = load ptr, ptr @mxid_to_string.str, align 8
  call void @llvm.lifetime.end.p0(i64 24, ptr nonnull %4) #13
  ret ptr %30
}